; Function Attrs: mustprogress nofree norecurse nosync nounwind memory(readwrite, inaccessiblemem: none) uwtable
define internal void @"_ZNSt17_Function_handlerIFvRKN2cv5RangeEEZNS0_8ximgproc15ScanSegmentImpl7iterateERKNS0_11_InputArrayEE3$_1E9_M_invokeERKSt9_Any_dataS3_"(ptr noundef nonnull readonly align 8 captures(none) dereferenceable(16) %0, ptr noundef nonnull readonly align 4 captures(none) dereferenceable(8) %1) #17 align 2 {
  %3 = load i32, ptr %1, align 4, !tbaa !138
  %4 = getelementptr inbounds nuw i8, ptr %1, i64 4
  %5 = load i32, ptr %4, align 4, !tbaa !140
  %6 = icmp slt i32 %3, %5
  br i1 %6, label %.lr.ph.i.i.i, label %"_ZSt10__invoke_rIvRZN2cv8ximgproc15ScanSegmentImpl7iterateERKNS0_11_InputArrayEE3$_1JRKNS0_5RangeEEENSt9enable_ifIXsr6__and_ISt7is_voidIT_ESt14__is_invocableIT0_JDpT1_EEEE5valueESD_E4typeEOSG_DpOSH_.exit"

.lr.ph.i.i.i:                                     ; preds = %2
  %.val = load ptr, ptr %0, align 8, !tbaa !213
  %7 = getelementptr inbounds nuw i8, ptr %.val, i64 3664
  %8 = getelementptr inbounds nuw i8, ptr %.val, i64 4760
  %9 = getelementptr inbounds nuw i8, ptr %.val, i64 3688
  %10 = getelementptr inbounds nuw i8, ptr %.val, i64 5832
  %11 = sext i32 %3 to i64
  br label %12

12:                                               ; preds = %_ZN2cv8ximgproc15ScanSegmentImpl3OP2ERKSt4pairIiiE.exit.i.i.i, %.lr.ph.i.i.i
  %13 = phi i32 [ %5, %.lr.ph.i.i.i ], [ %35, %_ZN2cv8ximgproc15ScanSegmentImpl3OP2ERKSt4pairIiiE.exit.i.i.i ]
  %indvars.iv.i.i.i = phi i64 [ %11, %.lr.ph.i.i.i ], [ %indvars.iv.next.i.i.i, %_ZN2cv8ximgproc15ScanSegmentImpl3OP2ERKSt4pairIiiE.exit.i.i.i ]
  %14 = load ptr, ptr %7, align 8, !tbaa !95
  %15 = getelementptr inbounds nuw %"struct.std::pair", ptr %14, i64 %indvars.iv.i.i.i
  %16 = load i32, ptr %15, align 4, !tbaa !98
  %17 = getelementptr inbounds nuw i8, ptr %15, i64 4
  %18 = load i32, ptr %17, align 4, !tbaa !100
  %19 = icmp slt i32 %16, %18
  br i1 %19, label %.lr.ph.i.i.i.i, label %_ZN2cv8ximgproc15ScanSegmentImpl3OP2ERKSt4pairIiiE.exit.i.i.i

.lr.ph.i.i.i.i:                                   ; preds = %12
  %20 = sext i32 %16 to i64
  br label %21

21:                                               ; preds = %21, %.lr.ph.i.i.i.i
  %indvars.iv.i.i.i.i = phi i64 [ %20, %.lr.ph.i.i.i.i ], [ %indvars.iv.next.i.i.i.i, %21 ]
  %22 = load ptr, ptr %8, align 8, !tbaa !64
  %23 = load ptr, ptr %9, align 8, !tbaa !64
  %24 = getelementptr inbounds i32, ptr %23, i64 %indvars.iv.i.i.i.i
  %25 = load i32, ptr %24, align 4, !tbaa !76
  %26 = sext i32 %25 to i64
  %27 = getelementptr inbounds i32, ptr %22, i64 %26
  %28 = load i32, ptr %27, align 4, !tbaa !76
  store i32 %28, ptr %24, align 4, !tbaa !76
  %29 = icmp eq i32 %28, 0
  %30 = load ptr, ptr %10, align 8, !tbaa !66
  %31 = getelementptr inbounds i8, ptr %30, i64 %indvars.iv.i.i.i.i
  %..i.i.i.i = sext i1 %29 to i8
  store i8 %..i.i.i.i, ptr %31, align 1, !tbaa !103
  %indvars.iv.next.i.i.i.i = add nsw i64 %indvars.iv.i.i.i.i, 1
  %32 = load i32, ptr %17, align 4, !tbaa !100
  %33 = sext i32 %32 to i64
  %34 = icmp slt i64 %indvars.iv.next.i.i.i.i, %33
  br i1 %34, label %21, label %_ZN2cv8ximgproc15ScanSegmentImpl3OP2ERKSt4pairIiiE.exit.loopexit.i.i.i, !llvm.loop !167

_ZN2cv8ximgproc15ScanSegmentImpl3OP2ERKSt4pairIiiE.exit.loopexit.i.i.i: ; preds = %21
  %.pre.i.i.i = load i32, ptr %4, align 4, !tbaa !140
  br label %_ZN2cv8ximgproc15ScanSegmentImpl3OP2ERKSt4pairIiiE.exit.i.i.i

_ZN2cv8ximgproc15ScanSegmentImpl3OP2ERKSt4pairIiiE.exit.i.i.i: ; preds = %_ZN2cv8ximgproc15ScanSegmentImpl3OP2ERKSt4pairIiiE.exit.loopexit.i.i.i, %12
  %35 = phi i32 [ %.pre.i.i.i, %_ZN2cv8ximgproc15ScanSegmentImpl3OP2ERKSt4pairIiiE.exit.loopexit.i.i.i ], [ %13, %12 ]
  %indvars.iv.next.i.i.i = add nsw i64 %indvars.iv.i.i.i, 1
  %36 = sext i32 %35 to i64
  %37 = icmp slt i64 %indvars.iv.next.i.i.i, %36
  br i1 %37, label %12, label %"_ZSt10__invoke_rIvRZN2cv8ximgproc15ScanSegmentImpl7iterateERKNS0_11_InputArrayEE3$_1JRKNS0_5RangeEEENSt9enable_ifIXsr6__and_ISt7is_voidIT_ESt14__is_invocableIT0_JDpT1_EEEE5valueESD_E4typeEOSG_DpOSH_.exit", !llvm.loop !215

"_ZSt10__invoke_rIvRZN2cv8ximgproc15ScanSegmentImpl7iterateERKNS0_11_InputArrayEE3$_1JRKNS0_5RangeEEENSt9enable_ifIXsr6__and_ISt7is_voidIT_ESt14__is_invocableIT0_JDpT1_EEEE5valueESD_E4typeEOSG_DpOSH_.exit": ; preds = %_ZN2cv8ximgproc15ScanSegmentImpl3OP2ERKSt4pairIiiE.exit.i.i.i, %2
  ret void
}